TN:
SF:/home/raulpro/Diseño_Software/IE-0417/laboratorio-testing/src/calculator.cpp
FN:12,14,_Z8multiplyii
FN:16,22,_Z6divideii
FN:24,26,_Z7is_eveni
FN:4,6,_Z3addii
FN:8,10,_Z8subtractii
FNDA:1,_Z8multiplyii
FNDA:5,_Z6divideii
FNDA:3,_Z7is_eveni
FNDA:15,_Z3addii
FNDA:1,_Z8subtractii
FNF:5
FNH:5
DA:4,15
DA:5,15
DA:8,1
DA:9,1
DA:12,1
DA:13,1
DA:16,5
DA:17,5
DA:18,1
DA:21,4
DA:24,3
DA:25,3
LF:12
LH:12
end_of_record
TN:
SF:/home/raulpro/Diseño_Software/IE-0417/laboratorio-testing/src/grade_utils.cpp
FN:18,20,_Z10is_passingi
FN:22,44,_Z12letter_gradei
FN:4,16,_Z7averageRKSt6vectorIiSaIiEE
FNDA:2,_Z10is_passingi
FNDA:17,_Z12letter_gradei
FNDA:2,_Z7averageRKSt6vectorIiSaIiEE
FNF:3
FNH:3
DA:4,2
DA:5,2
DA:6,1
DA:9,1
DA:11,4
DA:12,3
DA:15,1
DA:18,2
DA:19,2
DA:22,17
DA:23,17
DA:24,2
DA:27,15
DA:28,3
DA:31,12
DA:32,3
DA:35,9
DA:36,3
DA:39,6
DA:40,3
DA:43,3
LF:21
LH:21
end_of_record
TN:
SF:/home/raulpro/Diseño_Software/IE-0417/laboratorio-testing/src/string_utils.cpp
FN:15,28,_Z13is_palindromeRKNSt7__cxx1112basic_stringIcSt11char_traitsIcESaIcEEE
FN:30,42,_Z12count_vowelsRKNSt7__cxx1112basic_stringIcSt11char_traitsIcESaIcEEE
FN:5,13,_Z12to_uppercaseRKNSt7__cxx1112basic_stringIcSt11char_traitsIcESaIcEEE
FNDA:5,_Z13is_palindromeRKNSt7__cxx1112basic_stringIcSt11char_traitsIcESaIcEEE
FNDA:2,_Z12count_vowelsRKNSt7__cxx1112basic_stringIcSt11char_traitsIcESaIcEEE
FNDA:3,_Z12to_uppercaseRKNSt7__cxx1112basic_stringIcSt11char_traitsIcESaIcEEE
FNF:3
FNH:3
DA:5,3
DA:6,3
DA:8,14
DA:9,11
DA:12,3
DA:15,5
DA:16,5
DA:18,37
DA:19,32
DA:20,29
DA:24,5
DA:25,5
DA:27,10
DA:28,5
DA:30,2
DA:31,2
DA:33,15
DA:34,13
DA:36,13
DA:37,5
DA:41,2
LF:21
LH:21
end_of_record
